target datalayout = "e-m:e-p270:32:32-p271:32:32-p272:64:64-i64:64-i128:128-f80:128-n8:16:32:64-S128"
target triple = "x86_64-pc-linux-gnu"

%struct.__va_list_tag = type { i32, i32, ptr, ptr }

@hf_mswsp_crowseekatratio_ulnumerator = internal global i32 0, align 4
@hf_mswsp_crowseekatratio_uldenominator = internal global i32 0, align 4
@hf_mswsp_crowseekatratio_hregion = internal global i32 0, align 4
@ett_CRowsSeekAtRatio = internal global i32 0, align 4

; Function Attrs: null_pointer_is_valid sspstrong uwtable
define internal i32 @parse_CRowSeekAtRatio(ptr noundef %0, i32 noundef %1, ptr noundef %2, ptr noundef %3, ...) #0 {
  %5 = alloca ptr, align 8
  %6 = alloca i32, align 4
  %7 = alloca ptr, align 8
  %8 = alloca ptr, align 8
  %9 = alloca ptr, align 8
  %10 = alloca ptr, align 8
  %11 = alloca [1 x %struct.__va_list_tag], align 16
  %12 = alloca ptr, align 8
  store ptr %0, ptr %5, align 8
  store i32 %1, ptr %6, align 4
  store ptr %2, ptr %7, align 8
  store ptr %3, ptr %8, align 8
  call void @llvm.lifetime.start.p0(i64 8, ptr %9) #11
  call void @llvm.lifetime.start.p0(i64 8, ptr %10) #11
  call void @llvm.lifetime.start.p0(i64 24, ptr %11) #11
  call void @llvm.lifetime.start.p0(i64 8, ptr %12) #11
  %13 = getelementptr inbounds [1 x %struct.__va_list_tag], ptr %11, i64 0, i64 0
  call void @llvm.va_start.p0(ptr %13)
  %14 = call ptr @wmem_packet_scope()
  %15 = load ptr, ptr %8, align 8
  %16 = getelementptr inbounds [1 x %struct.__va_list_tag], ptr %11, i64 0, i64 0
  %17 = call noalias ptr @wmem_strdup_vprintf(ptr noundef %14, ptr noundef %15, ptr noundef %16)
  store ptr %17, ptr %12, align 8
  %18 = getelementptr inbounds [1 x %struct.__va_list_tag], ptr %11, i64 0, i64 0
  call void @llvm.va_end.p0(ptr %18)
  %19 = load ptr, ptr %7, align 8
  %20 = load ptr, ptr %5, align 8
  %21 = load i32, ptr %6, align 4
  %22 = load i32, ptr @ett_CRowsSeekAtRatio, align 4
  %23 = load ptr, ptr %12, align 8
  %24 = call ptr @proto_tree_add_subtree(ptr noundef %19, ptr noundef %20, i32 noundef %21, i32 noundef 0, i32 noundef %22, ptr noundef %10, ptr noundef %23)
  store ptr %24, ptr %9, align 8
  %25 = load ptr, ptr %9, align 8
  %26 = load i32, ptr @hf_mswsp_crowseekatratio_ulnumerator, align 4
  %27 = load ptr, ptr %5, align 8
  %28 = load i32, ptr %6, align 4
  %29 = call ptr @proto_tree_add_item(ptr noundef %25, i32 noundef %26, ptr noundef %27, i32 noundef %28, i32 noundef 4, i32 noundef -2147483648)
  %30 = load i32, ptr %6, align 4
  %31 = add i32 %30, 4
  store i32 %31, ptr %6, align 4
  %32 = load ptr, ptr %9, align 8
  %33 = load i32, ptr @hf_mswsp_crowseekatratio_uldenominator, align 4
  %34 = load ptr, ptr %5, align 8
  %35 = load i32, ptr %6, align 4
  %36 = call ptr @proto_tree_add_item(ptr noundef %32, i32 noundef %33, ptr noundef %34, i32 noundef %35, i32 noundef 4, i32 noundef -2147483648)
  %37 = load i32, ptr %6, align 4
  %38 = add i32 %37, 4
  store i32 %38, ptr %6, align 4
  %39 = load ptr, ptr %9, align 8
  %40 = load i32, ptr @hf_mswsp_crowseekatratio_hregion, align 4
  %41 = load ptr, ptr %5, align 8
  %42 = load i32, ptr %6, align 4
  %43 = call ptr @proto_tree_add_item(ptr noundef %39, i32 noundef %40, ptr noundef %41, i32 noundef %42, i32 noundef 4, i32 noundef -2147483648)
  %44 = load i32, ptr %6, align 4
  %45 = add i32 %44, 4
  store i32 %45, ptr %6, align 4
  %46 = load ptr, ptr %10, align 8
  %47 = load ptr, ptr %5, align 8
  %48 = load i32, ptr %6, align 4
  call void @proto_item_set_end(ptr noundef %46, ptr noundef %47, i32 noundef %48)
  %49 = load i32, ptr %6, align 4
  call void @llvm.lifetime.end.p0(i64 8, ptr %12) #11
  call void @llvm.lifetime.end.p0(i64 24, ptr %11) #11
  call void @llvm.lifetime.end.p0(i64 8, ptr %10) #11
  call void @llvm.lifetime.end.p0(i64 8, ptr %9) #11
  ret i32 %49
}