; Function Attrs: null_pointer_is_valid sspstrong uwtable
define internal void @parse_CRowSeekAtRatio(ptr noundef %0, i32 noundef range(i32 28, 57) %1, ptr noundef %2, ptr readnone captures(none) %3, ...) unnamed_addr #0 {
  %5 = alloca ptr, align 8
  %6 = alloca [1 x %struct.__va_list_tag], align 16
  call void @llvm.lifetime.start.p0(i64 8, ptr nonnull %5) #11
  call void @llvm.lifetime.start.p0(i64 24, ptr nonnull %6) #11
  call void @llvm.va_start.p0(ptr nonnull %6)
  %7 = call ptr @wmem_packet_scope()
  %8 = call noalias ptr @wmem_strdup_vprintf(ptr noundef %7, ptr noundef nonnull @.str.1360, ptr noundef nonnull %6)
  call void @llvm.va_end.p0(ptr nonnull %6)
  %9 = load i32, ptr @ett_CRowsSeekAtRatio, align 4
  %10 = call ptr @proto_tree_add_subtree(ptr noundef %2, ptr noundef %0, i32 noundef %1, i32 noundef 0, i32 noundef %9, ptr noundef nonnull %5, ptr noundef %8)
  %11 = load i32, ptr @hf_mswsp_crowseekatratio_ulnumerator, align 4
  %12 = call ptr @proto_tree_add_item(ptr noundef %10, i32 noundef %11, ptr noundef %0, i32 noundef %1, i32 noundef 4, i32 noundef -2147483648)
  %13 = add nuw nsw i32 %1, 4
  %14 = load i32, ptr @hf_mswsp_crowseekatratio_uldenominator, align 4
  %15 = call ptr @proto_tree_add_item(ptr noundef %10, i32 noundef %14, ptr noundef %0, i32 noundef %13, i32 noundef 4, i32 noundef -2147483648)
  %16 = add nuw nsw i32 %1, 8
  %17 = load i32, ptr @hf_mswsp_crowseekatratio_hregion, align 4
  %18 = call ptr @proto_tree_add_item(ptr noundef %10, i32 noundef %17, ptr noundef %0, i32 noundef %16, i32 noundef 4, i32 noundef -2147483648)
  %19 = add nuw nsw i32 %1, 12
  %20 = load ptr, ptr %5, align 8
  call void @proto_item_set_end(ptr noundef %20, ptr noundef %0, i32 noundef %19)
  call void @llvm.lifetime.end.p0(i64 24, ptr nonnull %6) #11
  call void @llvm.lifetime.end.p0(i64 8, ptr nonnull %5) #11
  ret void
}